target datalayout = "e-m:e-p270:32:32-p271:32:32-p272:64:64-i64:64-i128:128-f80:128-n8:16:32:64-S128"
target triple = "x86_64-pc-linux-gnu"

%struct.KINMemRec = type { double, ptr, ptr, double, double, i32, i32, i64, i64, i64, i64, i32, i32, i32, i32, i32, i32, i32, i32, i32, double, double, double, double, double, double, double, double, double, i32, double, i64, i64, i64, i64, i64, i64, i64, ptr, ptr, ptr, ptr, ptr, ptr, ptr, ptr, ptr, ptr, ptr, ptr, ptr, ptr, ptr, ptr, ptr, ptr, i64, i32, i32, i64, i64, i64, i64, ptr, ptr, ptr, ptr, i32, ptr, double, double, double, double, double, i32, double, double, double, i32, ptr, ptr, ptr, ptr, ptr, ptr }
%struct.KINDlsMemRec = type { i32, i64, i64, i64, i64, i32, ptr, ptr, ptr, ptr, ptr, ptr, i64, i64, i64 }

@.str = private unnamed_addr constant [7 x i8] c"KINDLS\00", align 1
@.str.2 = private unnamed_addr constant [23 x i8] c"KINSOL memory is NULL.\00", align 1
@.str.3 = private unnamed_addr constant [30 x i8] c"Linear solver memory is NULL.\00", align 1
@.str.5 = private unnamed_addr constant [20 x i8] c"KINBandGetWorkSpace\00", align 1

; Function Attrs: nounwind uwtable
define i32 @KINDlsGetWorkSpace(ptr noundef %0, ptr noundef %1, ptr noundef %2) #0 {
  %4 = alloca i32, align 4
  %5 = alloca ptr, align 8
  %6 = alloca ptr, align 8
  %7 = alloca ptr, align 8
  %8 = alloca ptr, align 8
  %9 = alloca ptr, align 8
  %10 = alloca i32, align 4
  store ptr %0, ptr %5, align 8, !tbaa !3
  store ptr %1, ptr %6, align 8, !tbaa !27
  store ptr %2, ptr %7, align 8, !tbaa !27
  call void @llvm.lifetime.start.p0(i64 8, ptr %8) #5
  call void @llvm.lifetime.start.p0(i64 8, ptr %9) #5
  %11 = load ptr, ptr %5, align 8, !tbaa !3
  %12 = icmp eq ptr %11, null
  br i1 %12, label %13, label %14

13:                                               ; preds = %3
  call void (ptr, i32, ptr, ptr, ptr, ...) @KINProcessError(ptr noundef null, i32 noundef -1, ptr noundef @.str, ptr noundef @.str.5, ptr noundef @.str.2)
  store i32 -1, ptr %4, align 4
  store i32 1, ptr %10, align 4
  br label %73

14:                                               ; preds = %3
  %15 = load ptr, ptr %5, align 8, !tbaa !3
  store ptr %15, ptr %8, align 8, !tbaa !7
  %16 = load ptr, ptr %8, align 8, !tbaa !7
  %17 = getelementptr inbounds nuw %struct.KINMemRec, ptr %16, i32 0, i32 68
  %18 = load ptr, ptr %17, align 8, !tbaa !9
  %19 = icmp eq ptr %18, null
  br i1 %19, label %20, label %22

20:                                               ; preds = %14
  %21 = load ptr, ptr %8, align 8, !tbaa !7
  call void (ptr, i32, ptr, ptr, ptr, ...) @KINProcessError(ptr noundef %21, i32 noundef -2, ptr noundef @.str, ptr noundef @.str.5, ptr noundef @.str.3)
  store i32 -2, ptr %4, align 4
  store i32 1, ptr %10, align 4
  br label %73

22:                                               ; preds = %14
  %23 = load ptr, ptr %8, align 8, !tbaa !7
  %24 = getelementptr inbounds nuw %struct.KINMemRec, ptr %23, i32 0, i32 68
  %25 = load ptr, ptr %24, align 8, !tbaa !9
  store ptr %25, ptr %9, align 8, !tbaa !18
  %26 = load ptr, ptr %9, align 8, !tbaa !18
  %27 = getelementptr inbounds nuw %struct.KINDlsMemRec, ptr %26, i32 0, i32 0
  %28 = load i32, ptr %27, align 8, !tbaa !28
  %29 = icmp eq i32 %28, 1
  br i1 %29, label %30, label %43

30:                                               ; preds = %22
  %31 = load ptr, ptr %9, align 8, !tbaa !18
  %32 = getelementptr inbounds nuw %struct.KINDlsMemRec, ptr %31, i32 0, i32 1
  %33 = load i64, ptr %32, align 8, !tbaa !29
  %34 = load ptr, ptr %9, align 8, !tbaa !18
  %35 = getelementptr inbounds nuw %struct.KINDlsMemRec, ptr %34, i32 0, i32 1
  %36 = load i64, ptr %35, align 8, !tbaa !29
  %37 = mul nsw i64 %33, %36
  %38 = load ptr, ptr %6, align 8, !tbaa !27
  store i64 %37, ptr %38, align 8, !tbaa !30
  %39 = load ptr, ptr %9, align 8, !tbaa !18
  %40 = getelementptr inbounds nuw %struct.KINDlsMemRec, ptr %39, i32 0, i32 1
  %41 = load i64, ptr %40, align 8, !tbaa !29
  %42 = load ptr, ptr %7, align 8, !tbaa !27
  store i64 %41, ptr %42, align 8, !tbaa !30
  br label %72

43:                                               ; preds = %22
  %44 = load ptr, ptr %9, align 8, !tbaa !18
  %45 = getelementptr inbounds nuw %struct.KINDlsMemRec, ptr %44, i32 0, i32 0
  %46 = load i32, ptr %45, align 8, !tbaa !28
  %47 = icmp eq i32 %46, 2
  br i1 %47, label %48, label %71

48:                                               ; preds = %43
  %49 = load ptr, ptr %9, align 8, !tbaa !18
  %50 = getelementptr inbounds nuw %struct.KINDlsMemRec, ptr %49, i32 0, i32 1
  %51 = load i64, ptr %50, align 8, !tbaa !29
  %52 = load ptr, ptr %9, align 8, !tbaa !18
  %53 = getelementptr inbounds nuw %struct.KINDlsMemRec, ptr %52, i32 0, i32 4
  %54 = load i64, ptr %53, align 8, !tbaa !31
  %55 = load ptr, ptr %9, align 8, !tbaa !18
  %56 = getelementptr inbounds nuw %struct.KINDlsMemRec, ptr %55, i32 0, i32 3
  %57 = load i64, ptr %56, align 8, !tbaa !32
  %58 = add nsw i64 %54, %57
  %59 = load ptr, ptr %9, align 8, !tbaa !18
  %60 = getelementptr inbounds nuw %struct.KINDlsMemRec, ptr %59, i32 0, i32 2
  %61 = load i64, ptr %60, align 8, !tbaa !33
  %62 = mul nsw i64 2, %61
  %63 = add nsw i64 %58, %62
  %64 = add nsw i64 %63, 2
  %65 = mul nsw i64 %51, %64
  %66 = load ptr, ptr %6, align 8, !tbaa !27
  store i64 %65, ptr %66, align 8, !tbaa !30
  %67 = load ptr, ptr %9, align 8, !tbaa !18
  %68 = getelementptr inbounds nuw %struct.KINDlsMemRec, ptr %67, i32 0, i32 1
  %69 = load i64, ptr %68, align 8, !tbaa !29
  %70 = load ptr, ptr %7, align 8, !tbaa !27
  store i64 %69, ptr %70, align 8, !tbaa !30
  br label %71

71:                                               ; preds = %48, %43
  br label %72

72:                                               ; preds = %71, %30
  store i32 0, ptr %4, align 4
  store i32 1, ptr %10, align 4
  br label %73

73:                                               ; preds = %72, %20, %13
  call void @llvm.lifetime.end.p0(i64 8, ptr %9) #5
  call void @llvm.lifetime.end.p0(i64 8, ptr %8) #5
  %74 = load i32, ptr %4, align 4
  ret i32 %74
}