; Function Attrs: nounwind uwtable
define range(i32 -2, 1) i32 @KINDlsGetWorkSpace(ptr noundef %0, ptr noundef writeonly captures(none) %1, ptr noundef writeonly captures(none) %2) local_unnamed_addr #0 {
  %4 = icmp eq ptr %0, null
  br i1 %4, label %5, label %6

5:                                                ; preds = %3
  tail call void (ptr, i32, ptr, ptr, ptr, ...) @KINProcessError(ptr noundef null, i32 noundef -1, ptr noundef nonnull @.str, ptr noundef nonnull @.str.5, ptr noundef nonnull @.str.2) #6
  br label %33

6:                                                ; preds = %3
  %7 = getelementptr inbounds nuw i8, ptr %0, i64 496
  %8 = load ptr, ptr %7, align 8, !tbaa !3
  %9 = icmp eq ptr %8, null
  br i1 %9, label %10, label %11

10:                                               ; preds = %6
  tail call void (ptr, i32, ptr, ptr, ptr, ...) @KINProcessError(ptr noundef nonnull %0, i32 noundef -2, ptr noundef nonnull @.str, ptr noundef nonnull @.str.5, ptr noundef nonnull @.str.3) #6
  br label %33

11:                                               ; preds = %6
  %12 = load i32, ptr %8, align 8, !tbaa !22
  switch i32 %12, label %33 [
    i32 1, label %13
    i32 2, label %18
  ]

13:                                               ; preds = %11
  %14 = getelementptr inbounds nuw i8, ptr %8, i64 8
  %15 = load i64, ptr %14, align 8, !tbaa !23
  %16 = mul nsw i64 %15, %15
  store i64 %16, ptr %1, align 8, !tbaa !24
  %17 = load i64, ptr %14, align 8, !tbaa !23
  store i64 %17, ptr %2, align 8, !tbaa !24
  br label %33

18:                                               ; preds = %11
  %19 = getelementptr inbounds nuw i8, ptr %8, i64 8
  %20 = load i64, ptr %19, align 8, !tbaa !23
  %21 = getelementptr inbounds nuw i8, ptr %8, i64 32
  %22 = load i64, ptr %21, align 8, !tbaa !25
  %23 = getelementptr inbounds nuw i8, ptr %8, i64 24
  %24 = load i64, ptr %23, align 8, !tbaa !26
  %25 = getelementptr inbounds nuw i8, ptr %8, i64 16
  %26 = load i64, ptr %25, align 8, !tbaa !27
  %27 = shl nsw i64 %26, 1
  %28 = add i64 %22, 2
  %29 = add i64 %28, %24
  %30 = add i64 %29, %27
  %31 = mul nsw i64 %30, %20
  store i64 %31, ptr %1, align 8, !tbaa !24
  %32 = load i64, ptr %19, align 8, !tbaa !23
  store i64 %32, ptr %2, align 8, !tbaa !24
  br label %33

33:                                               ; preds = %13, %18, %11, %10, %5
  %.0 = phi i32 [ -1, %5 ], [ -2, %10 ], [ 0, %11 ], [ 0, %18 ], [ 0, %13 ]
  ret i32 %.0
}